; Function Attrs: mustprogress uwtable
define dso_local void @_ZNK4Json17ValueIteratorBase4nameB5cxx11Ev(ptr dead_on_unwind noalias writable sret(%"class.std::__cxx11::basic_string") align 8 %0, ptr nocapture noundef nonnull readonly align 8 dereferenceable(9) %1) local_unnamed_addr #10 align 2 personality ptr @__gxx_personality_v0 {
  %3 = alloca %"class.std::allocator", align 1
  %4 = load ptr, ptr %1, align 8
  %5 = getelementptr inbounds i8, ptr %4, i64 32
  %6 = load ptr, ptr %5, align 8
  %.not.i = icmp eq ptr %6, null
  br i1 %.not.i, label %7, label %8

7:                                                ; preds = %2
  tail call void @_ZNSt7__cxx1112basic_stringIcSt11char_traitsIcESaIcEEC1Ev(ptr noundef nonnull align 8 dereferenceable(32) %0) #35
  br label %20

8:                                                ; preds = %2
  %9 = getelementptr inbounds i8, ptr %4, i64 40
  %10 = load i32, ptr %9, align 8
  %11 = lshr i32 %10, 2
  %12 = zext nneg i32 %11 to i64
  %13 = getelementptr inbounds i8, ptr %6, i64 %12
  call void @_ZNSaIcEC1Ev(ptr noundef nonnull align 1 dereferenceable(1) %3) #35
  %14 = invoke noundef ptr @_ZNSt7__cxx1112basic_stringIcSt11char_traitsIcESaIcEE13_M_local_dataEv(ptr noundef nonnull align 8 dereferenceable(32) %0)
          to label %.noexc unwind label %18

.noexc:                                           ; preds = %8
  invoke void @_ZNSt7__cxx1112basic_stringIcSt11char_traitsIcESaIcEE12_Alloc_hiderC1EPcRKS3_(ptr noundef nonnull align 8 dereferenceable(8) %0, ptr noundef %14, ptr noundef nonnull align 1 dereferenceable(1) %3)
          to label %.noexc4 unwind label %18

.noexc4:                                          ; preds = %.noexc
  %15 = getelementptr inbounds i8, ptr %0, i64 8
  store i64 0, ptr %15, align 8
  invoke void @_ZNSt7__cxx1112basic_stringIcSt11char_traitsIcESaIcEE12_M_constructIPKcEEvT_S8_St20forward_iterator_tag(ptr noundef nonnull align 8 dereferenceable(32) %0, ptr noundef nonnull %6, ptr noundef nonnull %13)
          to label %_ZNSt7__cxx1112basic_stringIcSt11char_traitsIcESaIcEEC2IPKcvEET_S8_RKS3_.exit unwind label %16

16:                                               ; preds = %.noexc4
  %17 = landingpad { ptr, i32 }
          cleanup
  call void @_ZNSaIcED2Ev(ptr noundef nonnull align 1 dereferenceable(1) %0) #35
  br label %.body

_ZNSt7__cxx1112basic_stringIcSt11char_traitsIcESaIcEEC2IPKcvEET_S8_RKS3_.exit: ; preds = %.noexc4
  call void @_ZNSaIcED1Ev(ptr noundef nonnull align 1 dereferenceable(1) %3) #35
  br label %20

18:                                               ; preds = %.noexc, %8
  %19 = landingpad { ptr, i32 }
          cleanup
  br label %.body

.body:                                            ; preds = %16, %18
  %eh.lpad-body = phi { ptr, i32 } [ %19, %18 ], [ %17, %16 ]
  call void @_ZNSaIcED1Ev(ptr noundef nonnull align 1 dereferenceable(1) %3) #35
  resume { ptr, i32 } %eh.lpad-body

20:                                               ; preds = %_ZNSt7__cxx1112basic_stringIcSt11char_traitsIcESaIcEEC2IPKcvEET_S8_RKS3_.exit, %7
  ret void
}